target datalayout = "e-m:e-p270:32:32-p271:32:32-p272:64:64-i64:64-i128:128-f80:128-n8:16:32:64-S128"
target triple = "x86_64-pc-linux-gnu"

%struct.AVFilterContext = type { ptr, ptr, ptr, ptr, ptr, i32, ptr, ptr, i32, ptr, ptr, i32, i32, ptr, ptr, ptr, ptr, i32, ptr, i32, i32 }
%struct.AudioNEqualizerContext = type { ptr, ptr, ptr, i32, i32, i32, double, i32, i32, i32, ptr, ptr }
%struct.AVFilterLink = type { ptr, ptr, ptr, ptr, i32, i32, i32, i32, %struct.AVRational, i32, i32, i32, %struct.AVChannelLayout, %struct.AVRational, ptr, i32, %struct.AVFilterFormatsConfig, %struct.AVFilterFormatsConfig }
%struct.AVChannelLayout = type { i32, i32, %union.anon.1, ptr }
%union.anon.1 = type { i64 }
%struct.AVRational = type { i32, i32 }
%struct.AVFilterFormatsConfig = type { ptr, ptr, ptr, ptr, ptr }
%struct.AVFrame = type { [8 x ptr], [8 x i32], ptr, i32, i32, i32, i32, i32, %struct.AVRational, i64, i64, %struct.AVRational, i32, ptr, i32, i32, [8 x ptr], ptr, i32, ptr, i32, i32, i32, i32, i32, i32, i32, i64, ptr, i32, ptr, ptr, i64, i64, i64, i64, ptr, %struct.AVChannelLayout, i64 }

; Function Attrs: nounwind uwtable
define internal i32 @filter_frame(ptr noundef %0, ptr noundef %1) #1 {
  %3 = alloca i32, align 4
  %4 = alloca ptr, align 8
  %5 = alloca ptr, align 8
  %6 = alloca ptr, align 8
  %7 = alloca ptr, align 8
  %8 = alloca ptr, align 8
  %9 = alloca ptr, align 8
  %10 = alloca i64, align 8
  %11 = alloca %struct.AVRational, align 4
  %12 = alloca i32, align 4
  %13 = alloca i32, align 4
  store ptr %0, ptr %4, align 8, !tbaa !46
  store ptr %1, ptr %5, align 8, !tbaa !63
  call void @llvm.lifetime.start.p0(i64 8, ptr %6) #13
  %14 = load ptr, ptr %4, align 8, !tbaa !46
  %15 = getelementptr inbounds nuw %struct.AVFilterLink, ptr %14, i32 0, i32 2
  %16 = load ptr, ptr %15, align 8, !tbaa !64
  store ptr %16, ptr %6, align 8, !tbaa !4
  call void @llvm.lifetime.start.p0(i64 8, ptr %7) #13
  %17 = load ptr, ptr %6, align 8, !tbaa !4
  %18 = getelementptr inbounds nuw %struct.AVFilterContext, ptr %17, i32 0, i32 9
  %19 = load ptr, ptr %18, align 8, !tbaa !9
  store ptr %19, ptr %7, align 8, !tbaa !22
  call void @llvm.lifetime.start.p0(i64 8, ptr %8) #13
  %20 = load ptr, ptr %6, align 8, !tbaa !4
  %21 = getelementptr inbounds nuw %struct.AVFilterContext, ptr %20, i32 0, i32 7
  %22 = load ptr, ptr %21, align 8, !tbaa !65
  %23 = getelementptr inbounds ptr, ptr %22, i64 0
  %24 = load ptr, ptr %23, align 8, !tbaa !46
  store ptr %24, ptr %8, align 8, !tbaa !46
  %25 = load ptr, ptr %6, align 8, !tbaa !4
  %26 = getelementptr inbounds nuw %struct.AVFilterContext, ptr %25, i32 0, i32 17
  %27 = load i32, ptr %26, align 8, !tbaa !66
  %28 = icmp ne i32 %27, 0
  br i1 %28, label %50, label %29

29:                                               ; preds = %2
  %30 = load ptr, ptr %6, align 8, !tbaa !4
  %31 = load ptr, ptr %5, align 8, !tbaa !63
  %32 = load ptr, ptr %4, align 8, !tbaa !46
  %33 = getelementptr inbounds nuw %struct.AVFilterLink, ptr %32, i32 0, i32 12
  %34 = getelementptr inbounds nuw %struct.AVChannelLayout, ptr %33, i32 0, i32 1
  %35 = load i32, ptr %34, align 4, !tbaa !67
  %36 = load ptr, ptr %6, align 8, !tbaa !4
  %37 = call i32 @ff_filter_get_nb_threads(ptr noundef %36) #14
  %38 = icmp sgt i32 %35, %37
  br i1 %38, label %39, label %42

39:                                               ; preds = %29
  %40 = load ptr, ptr %6, align 8, !tbaa !4
  %41 = call i32 @ff_filter_get_nb_threads(ptr noundef %40) #14
  br label %47

42:                                               ; preds = %29
  %43 = load ptr, ptr %4, align 8, !tbaa !46
  %44 = getelementptr inbounds nuw %struct.AVFilterLink, ptr %43, i32 0, i32 12
  %45 = getelementptr inbounds nuw %struct.AVChannelLayout, ptr %44, i32 0, i32 1
  %46 = load i32, ptr %45, align 4, !tbaa !67
  br label %47

47:                                               ; preds = %42, %39
  %48 = phi i32 [ %41, %39 ], [ %46, %42 ]
  %49 = call i32 @ff_filter_execute(ptr noundef %30, ptr noundef @filter_channels, ptr noundef %31, ptr noundef null, i32 noundef %48)
  br label %50

50:                                               ; preds = %47, %2
  %51 = load ptr, ptr %7, align 8, !tbaa !22
  %52 = getelementptr inbounds nuw %struct.AudioNEqualizerContext, ptr %51, i32 0, i32 3
  %53 = load i32, ptr %52, align 8, !tbaa !32
  %54 = icmp ne i32 %53, 0
  br i1 %54, label %55, label %102

55:                                               ; preds = %50
  call void @llvm.lifetime.start.p0(i64 8, ptr %9) #13
  call void @llvm.lifetime.start.p0(i64 8, ptr %10) #13
  %56 = load ptr, ptr %5, align 8, !tbaa !63
  %57 = getelementptr inbounds nuw %struct.AVFrame, ptr %56, i32 0, i32 9
  %58 = load i64, ptr %57, align 8, !tbaa !68
  %59 = load ptr, ptr %5, align 8, !tbaa !63
  %60 = getelementptr inbounds nuw %struct.AVFrame, ptr %59, i32 0, i32 5
  %61 = load i32, ptr %60, align 8, !tbaa !74
  %62 = sext i32 %61 to i64
  %63 = getelementptr inbounds nuw %struct.AVRational, ptr %11, i32 0, i32 0
  store i32 1, ptr %63, align 4, !tbaa !75
  %64 = getelementptr inbounds nuw %struct.AVRational, ptr %11, i32 0, i32 1
  %65 = load ptr, ptr %4, align 8, !tbaa !46
  %66 = getelementptr inbounds nuw %struct.AVFilterLink, ptr %65, i32 0, i32 11
  %67 = load i32, ptr %66, align 8, !tbaa !49
  store i32 %67, ptr %64, align 4, !tbaa !76
  %68 = load ptr, ptr %8, align 8, !tbaa !46
  %69 = getelementptr inbounds nuw %struct.AVFilterLink, ptr %68, i32 0, i32 13
  %70 = load i64, ptr %11, align 4
  %71 = load i64, ptr %69, align 8
  %72 = call i64 @av_rescale_q(i64 noundef %62, i64 %70, i64 %71) #15
  %73 = add nsw i64 %58, %72
  store i64 %73, ptr %10, align 8, !tbaa !77
  call void @llvm.lifetime.start.p0(i64 4, ptr %12) #13
  %74 = load i64, ptr %10, align 8, !tbaa !77
  %75 = load ptr, ptr %7, align 8, !tbaa !22
  %76 = getelementptr inbounds nuw %struct.AudioNEqualizerContext, ptr %75, i32 0, i32 11
  %77 = load ptr, ptr %76, align 8, !tbaa !62
  %78 = getelementptr inbounds nuw %struct.AVFrame, ptr %77, i32 0, i32 9
  store i64 %74, ptr %78, align 8, !tbaa !68
  %79 = load ptr, ptr %7, align 8, !tbaa !22
  %80 = getelementptr inbounds nuw %struct.AudioNEqualizerContext, ptr %79, i32 0, i32 11
  %81 = load ptr, ptr %80, align 8, !tbaa !62
  %82 = call ptr @av_frame_clone(ptr noundef %81)
  store ptr %82, ptr %9, align 8, !tbaa !63
  %83 = load ptr, ptr %9, align 8, !tbaa !63
  %84 = icmp ne ptr %83, null
  br i1 %84, label %86, label %85

85:                                               ; preds = %55
  store i32 -12, ptr %3, align 4
  store i32 1, ptr %13, align 4
  br label %99

86:                                               ; preds = %55
  %87 = load ptr, ptr %6, align 8, !tbaa !4
  %88 = getelementptr inbounds nuw %struct.AVFilterContext, ptr %87, i32 0, i32 7
  %89 = load ptr, ptr %88, align 8, !tbaa !65
  %90 = getelementptr inbounds ptr, ptr %89, i64 1
  %91 = load ptr, ptr %90, align 8, !tbaa !46
  %92 = load ptr, ptr %9, align 8, !tbaa !63
  %93 = call i32 @ff_filter_frame(ptr noundef %91, ptr noundef %92)
  store i32 %93, ptr %12, align 4, !tbaa !29
  %94 = load i32, ptr %12, align 4, !tbaa !29
  %95 = icmp slt i32 %94, 0
  br i1 %95, label %96, label %98

96:                                               ; preds = %86
  %97 = load i32, ptr %12, align 4, !tbaa !29
  store i32 %97, ptr %3, align 4
  store i32 1, ptr %13, align 4
  br label %99

98:                                               ; preds = %86
  store i32 0, ptr %13, align 4
  br label %99

99:                                               ; preds = %98, %96, %85
  call void @llvm.lifetime.end.p0(i64 4, ptr %12) #13
  call void @llvm.lifetime.end.p0(i64 8, ptr %10) #13
  call void @llvm.lifetime.end.p0(i64 8, ptr %9) #13
  %100 = load i32, ptr %13, align 4
  switch i32 %100, label %106 [
    i32 0, label %101
  ]

101:                                              ; preds = %99
  br label %102

102:                                              ; preds = %101, %50
  %103 = load ptr, ptr %8, align 8, !tbaa !46
  %104 = load ptr, ptr %5, align 8, !tbaa !63
  %105 = call i32 @ff_filter_frame(ptr noundef %103, ptr noundef %104)
  store i32 %105, ptr %3, align 4
  store i32 1, ptr %13, align 4
  br label %106

106:                                              ; preds = %102, %99
  call void @llvm.lifetime.end.p0(i64 8, ptr %8) #13
  call void @llvm.lifetime.end.p0(i64 8, ptr %7) #13
  call void @llvm.lifetime.end.p0(i64 8, ptr %6) #13
  %107 = load i32, ptr %3, align 4
  ret i32 %107
}