; Function Attrs: nounwind uwtable
define internal i32 @filter_frame(ptr noundef readonly captures(none) %0, ptr noundef %1) #1 {
  %3 = getelementptr inbounds nuw i8, ptr %0, i64 16
  %4 = load ptr, ptr %3, align 8, !tbaa !49
  %5 = getelementptr inbounds nuw i8, ptr %4, i64 72
  %6 = load ptr, ptr %5, align 8, !tbaa !4
  %7 = getelementptr inbounds nuw i8, ptr %4, i64 56
  %8 = load ptr, ptr %7, align 8, !tbaa !50
  %9 = load ptr, ptr %8, align 8, !tbaa !31
  %10 = getelementptr inbounds nuw i8, ptr %4, i64 128
  %11 = load i32, ptr %10, align 8, !tbaa !51
  %.not = icmp eq i32 %11, 0
  br i1 %.not, label %12, label %17

12:                                               ; preds = %2
  %13 = getelementptr inbounds nuw i8, ptr %0, i64 76
  %14 = load i32, ptr %13, align 4, !tbaa !52
  %15 = tail call i32 @ff_filter_get_nb_threads(ptr noundef nonnull %4) #16
  %. = tail call i32 @llvm.smin.i32(i32 %14, i32 %15)
  %16 = tail call i32 @ff_filter_execute(ptr noundef nonnull %4, ptr noundef nonnull @filter_channels, ptr noundef %1, ptr noundef null, i32 noundef %.) #15
  br label %17

17:                                               ; preds = %12, %2
  %18 = getelementptr inbounds nuw i8, ptr %6, i64 24
  %19 = load i32, ptr %18, align 8, !tbaa !22
  %.not31 = icmp eq i32 %19, 0
  br i1 %.not31, label %42, label %20

20:                                               ; preds = %17
  %21 = getelementptr inbounds nuw i8, ptr %1, i64 136
  %22 = load i64, ptr %21, align 8, !tbaa !53
  %23 = getelementptr inbounds nuw i8, ptr %1, i64 112
  %24 = load i32, ptr %23, align 8, !tbaa !59
  %25 = sext i32 %24 to i64
  %26 = getelementptr inbounds nuw i8, ptr %0, i64 64
  %27 = load i32, ptr %26, align 8, !tbaa !34
  %28 = getelementptr inbounds nuw i8, ptr %9, i64 96
  %.sroa.2.0.insert.ext = zext i32 %27 to i64
  %.sroa.2.0.insert.shift = shl nuw i64 %.sroa.2.0.insert.ext, 32
  %.sroa.0.0.insert.insert = or disjoint i64 %.sroa.2.0.insert.shift, 1
  %29 = load i64, ptr %28, align 8
  %30 = tail call i64 @av_rescale_q(i64 noundef %25, i64 %.sroa.0.0.insert.insert, i64 %29) #17
  %31 = add nsw i64 %30, %22
  %32 = getelementptr inbounds nuw i8, ptr %6, i64 72
  %33 = load ptr, ptr %32, align 8, !tbaa !48
  %34 = getelementptr inbounds nuw i8, ptr %33, i64 136
  store i64 %31, ptr %34, align 8, !tbaa !53
  %35 = tail call ptr @av_frame_clone(ptr noundef %33) #15
  %.not32 = icmp eq ptr %35, null
  br i1 %.not32, label %.thread, label %36

36:                                               ; preds = %20
  %37 = load ptr, ptr %7, align 8, !tbaa !50
  %38 = getelementptr inbounds nuw i8, ptr %37, i64 8
  %39 = load ptr, ptr %38, align 8, !tbaa !31
  %40 = tail call i32 @ff_filter_frame(ptr noundef %39, ptr noundef nonnull %35) #15
  %41 = icmp sgt i32 %40, -1
  br i1 %41, label %42, label %.thread

42:                                               ; preds = %36, %17
  %43 = tail call i32 @ff_filter_frame(ptr noundef %9, ptr noundef %1) #15
  br label %.thread

.thread:                                          ; preds = %20, %36, %42
  %.1 = phi i32 [ %43, %42 ], [ %40, %36 ], [ -12, %20 ]
  ret i32 %.1
}